target datalayout = "e-m:e-p270:32:32-p271:32:32-p272:64:64-i64:64-i128:128-f80:128-n8:16:32:64-S128"
target triple = "x86_64-unknown-linux-gnu"

%struct.asn1_string_st = type { i32, i32, ptr, i64 }

@i2a_ASN1_ENUMERATED.h = internal global ptr @.str, align 8
@.str.1 = private unnamed_addr constant [3 x i8] c"00\00", align 1
@.str.2 = private unnamed_addr constant [3 x i8] c"\\\0A\00", align 1

; Function Attrs: nounwind uwtable
define hidden i32 @i2a_ASN1_ENUMERATED(ptr noundef %bp, ptr noundef %a) #0 {
entry:
  %retval = alloca i32, align 4
  %bp.addr = alloca ptr, align 8
  %a.addr = alloca ptr, align 8
  %i = alloca i32, align 4
  %n = alloca i32, align 4
  %buf = alloca [2 x i8], align 1
  store ptr %bp, ptr %bp.addr, align 8
  store ptr %a, ptr %a.addr, align 8
  store i32 0, ptr %n, align 4
  %0 = load ptr, ptr %a.addr, align 8
  %cmp = icmp eq ptr %0, null
  br i1 %cmp, label %if.then, label %if.end

if.then:                                          ; preds = %entry
  store i32 0, ptr %retval, align 4
  br label %return

if.end:                                           ; preds = %entry
  %1 = load ptr, ptr %a.addr, align 8
  %length = getelementptr inbounds %struct.asn1_string_st, ptr %1, i32 0, i32 0
  %2 = load i32, ptr %length, align 8
  %cmp1 = icmp eq i32 %2, 0
  br i1 %cmp1, label %if.then2, label %if.else

if.then2:                                         ; preds = %if.end
  %3 = load ptr, ptr %bp.addr, align 8
  %call = call i32 @BIO_write(ptr noundef %3, ptr noundef @.str.1, i32 noundef 2)
  %cmp3 = icmp ne i32 %call, 2
  br i1 %cmp3, label %if.then4, label %if.end5

if.then4:                                         ; preds = %if.then2
  br label %err

if.end5:                                          ; preds = %if.then2
  store i32 2, ptr %n, align 4
  br label %if.end33

if.else:                                          ; preds = %if.end
  store i32 0, ptr %i, align 4
  br label %for.cond

for.cond:                                         ; preds = %for.inc, %if.else
  %4 = load i32, ptr %i, align 4
  %5 = load ptr, ptr %a.addr, align 8
  %length6 = getelementptr inbounds %struct.asn1_string_st, ptr %5, i32 0, i32 0
  %6 = load i32, ptr %length6, align 8
  %cmp7 = icmp slt i32 %4, %6
  br i1 %cmp7, label %for.body, label %for.end

for.body:                                         ; preds = %for.cond
  %7 = load i32, ptr %i, align 4
  %cmp8 = icmp ne i32 %7, 0
  br i1 %cmp8, label %land.lhs.true, label %if.end15

land.lhs.true:                                    ; preds = %for.body
  %8 = load i32, ptr %i, align 4
  %rem = srem i32 %8, 35
  %cmp9 = icmp eq i32 %rem, 0
  br i1 %cmp9, label %if.then10, label %if.end15

if.then10:                                        ; preds = %land.lhs.true
  %9 = load ptr, ptr %bp.addr, align 8
  %call11 = call i32 @BIO_write(ptr noundef %9, ptr noundef @.str.2, i32 noundef 2)
  %cmp12 = icmp ne i32 %call11, 2
  br i1 %cmp12, label %if.then13, label %if.end14

if.then13:                                        ; preds = %if.then10
  br label %err

if.end14:                                         ; preds = %if.then10
  %10 = load i32, ptr %n, align 4
  %add = add nsw i32 %10, 2
  store i32 %add, ptr %n, align 4
  br label %if.end15

if.end15:                                         ; preds = %if.end14, %land.lhs.true, %for.body
  %11 = load ptr, ptr @i2a_ASN1_ENUMERATED.h, align 8
  %12 = load ptr, ptr %a.addr, align 8
  %data = getelementptr inbounds %struct.asn1_string_st, ptr %12, i32 0, i32 2
  %13 = load ptr, ptr %data, align 8
  %14 = load i32, ptr %i, align 4
  %idxprom = sext i32 %14 to i64
  %arrayidx = getelementptr inbounds i8, ptr %13, i64 %idxprom
  %15 = load i8, ptr %arrayidx, align 1
  %conv = zext i8 %15 to i32
  %shr = ashr i32 %conv, 4
  %and = and i32 %shr, 15
  %idxprom16 = sext i32 %and to i64
  %arrayidx17 = getelementptr inbounds i8, ptr %11, i64 %idxprom16
  %16 = load i8, ptr %arrayidx17, align 1
  %arrayidx18 = getelementptr inbounds [2 x i8], ptr %buf, i64 0, i64 0
  store i8 %16, ptr %arrayidx18, align 1
  %17 = load ptr, ptr @i2a_ASN1_ENUMERATED.h, align 8
  %18 = load ptr, ptr %a.addr, align 8
  %data19 = getelementptr inbounds %struct.asn1_string_st, ptr %18, i32 0, i32 2
  %19 = load ptr, ptr %data19, align 8
  %20 = load i32, ptr %i, align 4
  %idxprom20 = sext i32 %20 to i64
  %arrayidx21 = getelementptr inbounds i8, ptr %19, i64 %idxprom20
  %21 = load i8, ptr %arrayidx21, align 1
  %conv22 = zext i8 %21 to i32
  %and23 = and i32 %conv22, 15
  %idxprom24 = sext i32 %and23 to i64
  %arrayidx25 = getelementptr inbounds i8, ptr %17, i64 %idxprom24
  %22 = load i8, ptr %arrayidx25, align 1
  %arrayidx26 = getelementptr inbounds [2 x i8], ptr %buf, i64 0, i64 1
  store i8 %22, ptr %arrayidx26, align 1
  %23 = load ptr, ptr %bp.addr, align 8
  %arraydecay = getelementptr inbounds [2 x i8], ptr %buf, i64 0, i64 0
  %call27 = call i32 @BIO_write(ptr noundef %23, ptr noundef %arraydecay, i32 noundef 2)
  %cmp28 = icmp ne i32 %call27, 2
  br i1 %cmp28, label %if.then30, label %if.end31

if.then30:                                        ; preds = %if.end15
  br label %err

if.end31:                                         ; preds = %if.end15
  %24 = load i32, ptr %n, align 4
  %add32 = add nsw i32 %24, 2
  store i32 %add32, ptr %n, align 4
  br label %for.inc

for.inc:                                          ; preds = %if.end31
  %25 = load i32, ptr %i, align 4
  %inc = add nsw i32 %25, 1
  store i32 %inc, ptr %i, align 4
  br label %for.cond, !llvm.loop !7

for.end:                                          ; preds = %for.cond
  br label %if.end33

if.end33:                                         ; preds = %for.end, %if.end5
  %26 = load i32, ptr %n, align 4
  store i32 %26, ptr %retval, align 4
  br label %return

err:                                              ; preds = %if.then30, %if.then13, %if.then4
  store i32 -1, ptr %retval, align 4
  br label %return

return:                                           ; preds = %err, %if.end33, %if.then
  %27 = load i32, ptr %retval, align 4
  ret i32 %27
}