; Function Attrs: nounwind uwtable
define hidden range(i32 -2147483646, -2147483648) i32 @i2a_ASN1_ENUMERATED(ptr noundef %bp, ptr noundef readonly %a) local_unnamed_addr #0 {
entry:
  %buf = alloca [2 x i8], align 1
  %cmp = icmp eq ptr %a, null
  br i1 %cmp, label %return, label %if.end

if.end:                                           ; preds = %entry
  %0 = load i32, ptr %a, align 8
  %cmp1 = icmp eq i32 %0, 0
  br i1 %cmp1, label %if.then2, label %for.cond.preheader

for.cond.preheader:                               ; preds = %if.end
  %cmp715 = icmp sgt i32 %0, 0
  br i1 %cmp715, label %for.body.lr.ph, label %return

for.body.lr.ph:                                   ; preds = %for.cond.preheader
  %data = getelementptr inbounds nuw i8, ptr %a, i64 8
  %arrayidx26 = getelementptr inbounds nuw i8, ptr %buf, i64 1
  br label %for.body

if.then2:                                         ; preds = %if.end
  %call = tail call i32 @BIO_write(ptr noundef %bp, ptr noundef nonnull @.str.1, i32 noundef 2) #5
  %cmp3.not = icmp eq i32 %call, 2
  br i1 %cmp3.not, label %return, label %err

for.body:                                         ; preds = %for.body.lr.ph, %if.end31
  %indvars.iv = phi i64 [ 0, %for.body.lr.ph ], [ %indvars.iv.next, %if.end31 ]
  %n.117 = phi i32 [ 0, %for.body.lr.ph ], [ %add32, %if.end31 ]
  %cmp8.not = icmp ne i64 %indvars.iv, 0
  %1 = trunc nuw nsw i64 %indvars.iv to i32
  %rem = urem i32 %1, 35
  %cmp9 = icmp eq i32 %rem, 0
  %or.cond = and i1 %cmp8.not, %cmp9
  br i1 %or.cond, label %if.then10, label %if.end15

if.then10:                                        ; preds = %for.body
  %call11 = call i32 @BIO_write(ptr noundef %bp, ptr noundef nonnull @.str.2, i32 noundef 2) #5
  %cmp12.not = icmp eq i32 %call11, 2
  br i1 %cmp12.not, label %if.end14, label %err

if.end14:                                         ; preds = %if.then10
  %add = add nsw i32 %n.117, 2
  br label %if.end15

if.end15:                                         ; preds = %if.end14, %for.body
  %n.2 = phi i32 [ %add, %if.end14 ], [ %n.117, %for.body ]
  %2 = load ptr, ptr %data, align 8
  %arrayidx = getelementptr inbounds nuw i8, ptr %2, i64 %indvars.iv
  %3 = load i8, ptr %arrayidx, align 1
  %4 = lshr i8 %3, 4
  %idxprom16 = zext nneg i8 %4 to i64
  %arrayidx17 = getelementptr inbounds nuw i8, ptr @.str, i64 %idxprom16
  %5 = load i8, ptr %arrayidx17, align 1
  store i8 %5, ptr %buf, align 1
  %6 = load i8, ptr %arrayidx, align 1
  %7 = and i8 %6, 15
  %idxprom24 = zext nneg i8 %7 to i64
  %arrayidx25 = getelementptr inbounds nuw i8, ptr @.str, i64 %idxprom24
  %8 = load i8, ptr %arrayidx25, align 1
  store i8 %8, ptr %arrayidx26, align 1
  %call27 = call i32 @BIO_write(ptr noundef %bp, ptr noundef nonnull %buf, i32 noundef 2) #5
  %cmp28.not = icmp eq i32 %call27, 2
  br i1 %cmp28.not, label %if.end31, label %err

if.end31:                                         ; preds = %if.end15
  %add32 = add nsw i32 %n.2, 2
  %indvars.iv.next = add nuw nsw i64 %indvars.iv, 1
  %9 = load i32, ptr %a, align 8
  %10 = sext i32 %9 to i64
  %cmp7 = icmp slt i64 %indvars.iv.next, %10
  br i1 %cmp7, label %for.body, label %return, !llvm.loop !7

err:                                              ; preds = %if.end15, %if.then10, %if.then2
  br label %return

return:                                           ; preds = %if.end31, %for.cond.preheader, %if.then2, %entry, %err
  %retval.0 = phi i32 [ -1, %err ], [ 0, %entry ], [ 2, %if.then2 ], [ 0, %for.cond.preheader ], [ %add32, %if.end31 ]
  ret i32 %retval.0
}